target datalayout = "e-m:e-p270:32:32-p271:32:32-p272:64:64-i64:64-i128:128-f80:128-n8:16:32:64-S128"
target triple = "x86_64-pc-linux-gnu"

%struct.QuadTree_struct = type { i32, double, i32, ptr, double, ptr, ptr, ptr, i32, ptr }

; Function Attrs: nounwind uwtable
define void @QuadTree_get_repulsive_force(ptr noundef %0, ptr noundef %1, ptr noundef %2, double noundef %3, double noundef %4, double noundef %5, ptr noundef %6) #0 {
  %8 = alloca ptr, align 8
  %9 = alloca ptr, align 8
  %10 = alloca ptr, align 8
  %11 = alloca double, align 8
  %12 = alloca double, align 8
  %13 = alloca double, align 8
  %14 = alloca ptr, align 8
  %15 = alloca i32, align 4
  %16 = alloca i32, align 4
  %17 = alloca i32, align 4
  store ptr %0, ptr %8, align 8, !tbaa !3
  store ptr %1, ptr %9, align 8, !tbaa !10
  store ptr %2, ptr %10, align 8, !tbaa !10
  store double %3, ptr %11, align 8, !tbaa !8
  store double %4, ptr %12, align 8, !tbaa !8
  store double %5, ptr %13, align 8, !tbaa !8
  store ptr %6, ptr %14, align 8, !tbaa !10
  call void @llvm.lifetime.start.p0(i64 4, ptr %15) #11
  %18 = load ptr, ptr %8, align 8, !tbaa !3
  %19 = getelementptr inbounds nuw %struct.QuadTree_struct, ptr %18, i32 0, i32 0
  %20 = load i32, ptr %19, align 8, !tbaa !44
  store i32 %20, ptr %15, align 4, !tbaa !12
  call void @llvm.lifetime.start.p0(i64 4, ptr %16) #11
  %21 = load ptr, ptr %8, align 8, !tbaa !3
  %22 = getelementptr inbounds nuw %struct.QuadTree_struct, ptr %21, i32 0, i32 2
  %23 = load i32, ptr %22, align 8, !tbaa !18
  store i32 %23, ptr %16, align 4, !tbaa !12
  call void @llvm.lifetime.start.p0(i64 4, ptr %17) #11
  store i32 0, ptr %17, align 4, !tbaa !12
  br label %24

24:                                               ; preds = %32, %7
  %25 = load i32, ptr %17, align 4, !tbaa !12
  %26 = icmp slt i32 %25, 4
  br i1 %26, label %27, label %35

27:                                               ; preds = %24
  %28 = load ptr, ptr %14, align 8, !tbaa !10
  %29 = load i32, ptr %17, align 4, !tbaa !12
  %30 = sext i32 %29 to i64
  %31 = getelementptr inbounds double, ptr %28, i64 %30
  store double 0.000000e+00, ptr %31, align 8, !tbaa !8
  br label %32

32:                                               ; preds = %27
  %33 = load i32, ptr %17, align 4, !tbaa !12
  %34 = add nsw i32 %33, 1
  store i32 %34, ptr %17, align 4, !tbaa !12
  br label %24, !llvm.loop !45

35:                                               ; preds = %24
  store i32 0, ptr %17, align 4, !tbaa !12
  br label %36

36:                                               ; preds = %47, %35
  %37 = load i32, ptr %17, align 4, !tbaa !12
  %38 = load i32, ptr %16, align 4, !tbaa !12
  %39 = load i32, ptr %15, align 4, !tbaa !12
  %40 = mul nsw i32 %38, %39
  %41 = icmp slt i32 %37, %40
  br i1 %41, label %42, label %50

42:                                               ; preds = %36
  %43 = load ptr, ptr %9, align 8, !tbaa !10
  %44 = load i32, ptr %17, align 4, !tbaa !12
  %45 = sext i32 %44 to i64
  %46 = getelementptr inbounds double, ptr %43, i64 %45
  store double 0.000000e+00, ptr %46, align 8, !tbaa !8
  br label %47

47:                                               ; preds = %42
  %48 = load i32, ptr %17, align 4, !tbaa !12
  %49 = add nsw i32 %48, 1
  store i32 %49, ptr %17, align 4, !tbaa !12
  br label %36, !llvm.loop !46

50:                                               ; preds = %36
  %51 = load ptr, ptr %8, align 8, !tbaa !3
  %52 = load ptr, ptr %8, align 8, !tbaa !3
  %53 = load ptr, ptr %10, align 8, !tbaa !10
  %54 = load ptr, ptr %9, align 8, !tbaa !10
  %55 = load double, ptr %11, align 8, !tbaa !8
  %56 = load double, ptr %12, align 8, !tbaa !8
  %57 = load double, ptr %13, align 8, !tbaa !8
  %58 = load ptr, ptr %14, align 8, !tbaa !10
  call void @QuadTree_repulsive_force_interact(ptr noundef %51, ptr noundef %52, ptr noundef %53, ptr noundef %54, double noundef %55, double noundef %56, double noundef %57, ptr noundef %58)
  %59 = load ptr, ptr %8, align 8, !tbaa !3
  %60 = load ptr, ptr %9, align 8, !tbaa !10
  %61 = load ptr, ptr %14, align 8, !tbaa !10
  call void @QuadTree_repulsive_force_accumulate(ptr noundef %59, ptr noundef %60, ptr noundef %61)
  store i32 0, ptr %17, align 4, !tbaa !12
  br label %62

62:                                               ; preds = %74, %50
  %63 = load i32, ptr %17, align 4, !tbaa !12
  %64 = icmp slt i32 %63, 4
  br i1 %64, label %65, label %77

65:                                               ; preds = %62
  %66 = load i32, ptr %15, align 4, !tbaa !12
  %67 = sitofp i32 %66 to double
  %68 = load ptr, ptr %14, align 8, !tbaa !10
  %69 = load i32, ptr %17, align 4, !tbaa !12
  %70 = sext i32 %69 to i64
  %71 = getelementptr inbounds double, ptr %68, i64 %70
  %72 = load double, ptr %71, align 8, !tbaa !8
  %73 = fdiv double %72, %67
  store double %73, ptr %71, align 8, !tbaa !8
  br label %74

74:                                               ; preds = %65
  %75 = load i32, ptr %17, align 4, !tbaa !12
  %76 = add nsw i32 %75, 1
  store i32 %76, ptr %17, align 4, !tbaa !12
  br label %62, !llvm.loop !47

77:                                               ; preds = %62
  call void @llvm.lifetime.end.p0(i64 4, ptr %17) #11
  call void @llvm.lifetime.end.p0(i64 4, ptr %16) #11
  call void @llvm.lifetime.end.p0(i64 4, ptr %15) #11
  ret void
}