; Function Attrs: nounwind uwtable
define void @QuadTree_get_repulsive_force(ptr noundef %0, ptr noundef %1, ptr noundef %2, double noundef %3, double noundef %4, double noundef %5, ptr noundef initializes((0, 32)) %6) local_unnamed_addr #0 {
.preheader:
  %7 = load i32, ptr %0, align 8, !tbaa !35
  %8 = getelementptr inbounds nuw i8, ptr %0, i64 16
  %9 = load i32, ptr %8, align 8, !tbaa !3
  tail call void @llvm.memset.p0.i64(ptr noundef nonnull align 8 dereferenceable(32) %6, i8 0, i64 32, i1 false), !tbaa !13
  %10 = mul nsw i32 %9, %7
  %11 = icmp sgt i32 %10, 0
  br i1 %11, label %.lr.ph.preheader, label %._crit_edge

.lr.ph.preheader:                                 ; preds = %.preheader
  %12 = zext nneg i32 %10 to i64
  %13 = shl nuw nsw i64 %12, 3
  tail call void @llvm.memset.p0.i64(ptr align 8 %1, i8 0, i64 %13, i1 false), !tbaa !13
  br label %._crit_edge

._crit_edge:                                      ; preds = %.lr.ph.preheader, %.preheader
  tail call fastcc void @QuadTree_repulsive_force_interact(ptr noundef nonnull %0, ptr noundef nonnull %0, ptr noundef %2, ptr noundef %1, double noundef %3, double noundef %4, double noundef %5, ptr noundef nonnull %6)
  tail call fastcc void @QuadTree_repulsive_force_accumulate(ptr noundef nonnull %0, ptr noundef %1, ptr noundef nonnull %6)
  %14 = sitofp i32 %7 to double
  br label %15

15:                                               ; preds = %._crit_edge, %15
  %indvars.iv = phi i64 [ 0, %._crit_edge ], [ %indvars.iv.next, %15 ]
  %16 = getelementptr inbounds nuw double, ptr %6, i64 %indvars.iv
  %17 = load double, ptr %16, align 8, !tbaa !13
  %18 = fdiv double %17, %14
  store double %18, ptr %16, align 8, !tbaa !13
  %indvars.iv.next = add nuw nsw i64 %indvars.iv, 1
  %exitcond.not = icmp eq i64 %indvars.iv.next, 4
  br i1 %exitcond.not, label %19, label %15, !llvm.loop !36

19:                                               ; preds = %15
  ret void
}